; Function Attrs: mustprogress nofree nounwind uwtable
define hidden void @_ZN7testing8internal29PrintFullTestCommentIfPresentERKNS_8TestInfoE(ptr noundef nonnull readonly align 8 captures(none) dereferenceable(176) %0) local_unnamed_addr #18 {
  %2 = getelementptr inbounds nuw i8, ptr %0, i64 64
  %3 = load ptr, ptr %2, align 8
  %.not.i = icmp eq ptr %3, null
  br i1 %.not.i, label %_ZNK7testing8TestInfo10type_paramEv.exit, label %4

4:                                                ; preds = %1
  %5 = load ptr, ptr %3, align 8
  br label %_ZNK7testing8TestInfo10type_paramEv.exit

_ZNK7testing8TestInfo10type_paramEv.exit:         ; preds = %1, %4
  %.0.i = phi ptr [ %5, %4 ], [ null, %1 ]
  %6 = getelementptr inbounds nuw i8, ptr %0, i64 72
  %7 = load ptr, ptr %6, align 8
  %.not.i11 = icmp eq ptr %7, null
  br i1 %.not.i11, label %_ZNK7testing8TestInfo11value_paramEv.exit, label %8

8:                                                ; preds = %_ZNK7testing8TestInfo10type_paramEv.exit
  %9 = load ptr, ptr %7, align 8
  br label %_ZNK7testing8TestInfo11value_paramEv.exit

_ZNK7testing8TestInfo11value_paramEv.exit:        ; preds = %_ZNK7testing8TestInfo10type_paramEv.exit, %8
  %.0.i12 = phi ptr [ %9, %8 ], [ null, %_ZNK7testing8TestInfo10type_paramEv.exit ]
  %10 = icmp ne ptr %.0.i, null
  %11 = icmp ne ptr %.0.i12, null
  %or.cond = or i1 %10, %11
  br i1 %or.cond, label %12, label %.critedge

12:                                               ; preds = %_ZNK7testing8TestInfo11value_paramEv.exit
  %13 = tail call i32 (ptr, ...) @printf(ptr noundef nonnull dereferenceable(1) @.str.133)
  br i1 %10, label %14, label %17

14:                                               ; preds = %12
  %15 = tail call i32 (ptr, ...) @printf(ptr noundef nonnull dereferenceable(1) @.str.134, ptr noundef nonnull @_ZN7testing8internalL15kTypeParamLabelE, ptr noundef nonnull %.0.i)
  br i1 %11, label %.thread, label %.critedge

.thread:                                          ; preds = %14
  %16 = tail call i32 (ptr, ...) @printf(ptr noundef nonnull dereferenceable(1) @.str.60)
  br label %18

17:                                               ; preds = %12
  br i1 %11, label %18, label %.critedge

18:                                               ; preds = %.thread, %17
  %19 = tail call i32 (ptr, ...) @printf(ptr noundef nonnull dereferenceable(1) @.str.134, ptr noundef nonnull @_ZN7testing8internalL16kValueParamLabelE, ptr noundef nonnull %.0.i12)
  br label %.critedge

.critedge:                                        ; preds = %14, %17, %18, %_ZNK7testing8TestInfo11value_paramEv.exit
  ret void
}